target datalayout = "e-m:e-p270:32:32-p271:32:32-p272:64:64-i64:64-i128:128-f80:128-n8:16:32:64-S128"
target triple = "x86_64-pc-linux-gnu"

%"class.Ipopt::StdInterfaceTNLP" = type { %"class.Ipopt::TNLP.base", %"class.Ipopt::SmartPtr", i32, i32, ptr, ptr, ptr, ptr, i32, i32, i32, ptr, ptr, ptr, ptr, ptr, ptr, ptr, ptr, ptr, ptr, ptr, double, ptr, ptr, ptr, ptr, ptr, ptr, ptr, ptr, ptr, ptr, ptr }
%"class.Ipopt::TNLP.base" = type { %"class.Ipopt::ReferencedObject.base" }
%"class.Ipopt::ReferencedObject.base" = type <{ ptr, i32 }>
%"class.Ipopt::SmartPtr" = type { ptr }

; Function Attrs: mustprogress uwtable
define noundef zeroext i1 @_ZN5Ipopt16StdInterfaceTNLP22get_scaling_parametersERdRbiPdS2_iS3_(ptr noundef nonnull align 8 dereferenceable(264) %0, ptr noundef nonnull align 8 dereferenceable(8) %1, ptr noundef nonnull align 1 dereferenceable(1) %2, i32 noundef %3, ptr noundef %4, ptr noundef nonnull align 1 dereferenceable(1) %5, i32 noundef %6, ptr noundef %7) unnamed_addr #0 align 2 {
  %9 = alloca ptr, align 8
  %10 = alloca ptr, align 8
  %11 = alloca ptr, align 8
  %12 = alloca i32, align 4
  %13 = alloca ptr, align 8
  %14 = alloca ptr, align 8
  %15 = alloca i32, align 4
  %16 = alloca ptr, align 8
  store ptr %0, ptr %9, align 8
  store ptr %1, ptr %10, align 8
  store ptr %2, ptr %11, align 8
  store i32 %3, ptr %12, align 4
  store ptr %4, ptr %13, align 8
  store ptr %5, ptr %14, align 8
  store i32 %6, ptr %15, align 4
  store ptr %7, ptr %16, align 8
  %17 = load ptr, ptr %9, align 8
  %18 = getelementptr inbounds %"class.Ipopt::StdInterfaceTNLP", ptr %17, i32 0, i32 22
  %19 = load double, ptr %18, align 8
  %20 = load ptr, ptr %10, align 8
  store double %19, ptr %20, align 8
  %21 = getelementptr inbounds %"class.Ipopt::StdInterfaceTNLP", ptr %17, i32 0, i32 23
  %22 = load ptr, ptr %21, align 8
  %23 = icmp ne ptr %22, null
  br i1 %23, label %24, label %31

24:                                               ; preds = %8
  %25 = load ptr, ptr %11, align 8
  store i8 1, ptr %25, align 1
  %26 = getelementptr inbounds %"class.Ipopt::StdInterfaceTNLP", ptr %17, i32 0, i32 2
  %27 = load i32, ptr %26, align 8
  %28 = getelementptr inbounds %"class.Ipopt::StdInterfaceTNLP", ptr %17, i32 0, i32 23
  %29 = load ptr, ptr %28, align 8
  %30 = load ptr, ptr %13, align 8
  call void @_ZN5Ipopt10IpBlasCopyEiPKdiPdi(i32 noundef %27, ptr noundef %29, i32 noundef 1, ptr noundef %30, i32 noundef 1)
  br label %33

31:                                               ; preds = %8
  %32 = load ptr, ptr %11, align 8
  store i8 0, ptr %32, align 1
  br label %33

33:                                               ; preds = %31, %24
  %34 = getelementptr inbounds %"class.Ipopt::StdInterfaceTNLP", ptr %17, i32 0, i32 24
  %35 = load ptr, ptr %34, align 8
  %36 = icmp ne ptr %35, null
  br i1 %36, label %37, label %44

37:                                               ; preds = %33
  %38 = load ptr, ptr %14, align 8
  store i8 1, ptr %38, align 1
  %39 = getelementptr inbounds %"class.Ipopt::StdInterfaceTNLP", ptr %17, i32 0, i32 3
  %40 = load i32, ptr %39, align 4
  %41 = getelementptr inbounds %"class.Ipopt::StdInterfaceTNLP", ptr %17, i32 0, i32 24
  %42 = load ptr, ptr %41, align 8
  %43 = load ptr, ptr %16, align 8
  call void @_ZN5Ipopt10IpBlasCopyEiPKdiPdi(i32 noundef %40, ptr noundef %42, i32 noundef 1, ptr noundef %43, i32 noundef 1)
  br label %46

44:                                               ; preds = %33
  %45 = load ptr, ptr %14, align 8
  store i8 0, ptr %45, align 1
  br label %46

46:                                               ; preds = %44, %37
  ret i1 true
}