; Function Attrs: mustprogress uwtable
define noundef zeroext i1 @_ZN5Ipopt16StdInterfaceTNLP22get_scaling_parametersERdRbiPdS2_iS3_(ptr nocapture noundef nonnull readonly align 8 dereferenceable(264) %0, ptr nocapture noundef nonnull writeonly align 8 dereferenceable(8) %1, ptr nocapture noundef nonnull writeonly align 1 dereferenceable(1) %2, i32 %3, ptr noundef %4, ptr nocapture noundef nonnull writeonly align 1 dereferenceable(1) %5, i32 %6, ptr noundef %7) unnamed_addr #0 align 2 {
  %9 = getelementptr inbounds i8, ptr %0, i64 168
  %10 = load double, ptr %9, align 8
  store double %10, ptr %1, align 8
  %11 = getelementptr inbounds i8, ptr %0, i64 176
  %12 = load ptr, ptr %11, align 8
  %.not = icmp eq ptr %12, null
  br i1 %.not, label %17, label %13

13:                                               ; preds = %8
  store i8 1, ptr %2, align 1
  %14 = getelementptr inbounds i8, ptr %0, i64 24
  %15 = load i32, ptr %14, align 8
  %16 = load ptr, ptr %11, align 8
  tail call void @_ZN5Ipopt10IpBlasCopyEiPKdiPdi(i32 noundef %15, ptr noundef %16, i32 noundef 1, ptr noundef %4, i32 noundef 1)
  br label %18

17:                                               ; preds = %8
  store i8 0, ptr %2, align 1
  br label %18

18:                                               ; preds = %17, %13
  %19 = getelementptr inbounds i8, ptr %0, i64 184
  %20 = load ptr, ptr %19, align 8
  %.not8 = icmp eq ptr %20, null
  br i1 %.not8, label %25, label %21

21:                                               ; preds = %18
  store i8 1, ptr %5, align 1
  %22 = getelementptr inbounds i8, ptr %0, i64 28
  %23 = load i32, ptr %22, align 4
  %24 = load ptr, ptr %19, align 8
  tail call void @_ZN5Ipopt10IpBlasCopyEiPKdiPdi(i32 noundef %23, ptr noundef %24, i32 noundef 1, ptr noundef %7, i32 noundef 1)
  br label %26

25:                                               ; preds = %18
  store i8 0, ptr %5, align 1
  br label %26

26:                                               ; preds = %25, %21
  ret i1 true
}